; Function Attrs: mustprogress uwtable
define void @_ZN7rocksdb6DBImpl18NewDefaultReplayerERKSt6vectorIPNS_18ColumnFamilyHandleESaIS3_EEOSt10unique_ptrINS_11TraceReaderESt14default_deleteIS9_EEPS8_INS_8ReplayerESA_ISE_EE(ptr noalias nocapture writeonly sret(%"class.rocksdb::Status") align 8 %agg.result, ptr noundef nonnull align 64 dereferenceable(6660) %this, ptr noundef nonnull align 8 dereferenceable(24) %handles, ptr noundef nonnull align 8 dereferenceable(8) %reader, ptr nocapture noundef %replayer) unnamed_addr #5 align 2 personality ptr @__gxx_personality_v0 {
entry:
  %call = tail call noalias noundef nonnull dereferenceable(96) ptr @_Znwm(i64 noundef 96) #35
  invoke void @_ZN7rocksdb12ReplayerImplC1EPNS_2DBERKSt6vectorIPNS_18ColumnFamilyHandleESaIS5_EEOSt10unique_ptrINS_11TraceReaderESt14default_deleteISB_EE(ptr noundef nonnull align 8 dereferenceable(92) %call, ptr noundef nonnull %this, ptr noundef nonnull align 8 dereferenceable(24) %handles, ptr noundef nonnull align 8 dereferenceable(8) %reader)
          to label %invoke.cont unwind label %lpad

invoke.cont:                                      ; preds = %entry
  %0 = load ptr, ptr %replayer, align 8
  store ptr %call, ptr %replayer, align 8
  %tobool.not.i.i = icmp eq ptr %0, null
  br i1 %tobool.not.i.i, label %_ZNSt10unique_ptrIN7rocksdb8ReplayerESt14default_deleteIS1_EE5resetEPS1_.exit, label %_ZNKSt14default_deleteIN7rocksdb8ReplayerEEclEPS1_.exit.i.i

_ZNKSt14default_deleteIN7rocksdb8ReplayerEEclEPS1_.exit.i.i: ; preds = %invoke.cont
  %vtable.i.i.i = load ptr, ptr %0, align 8
  %vfn.i.i.i = getelementptr inbounds i8, ptr %vtable.i.i.i, i64 8
  %1 = load ptr, ptr %vfn.i.i.i, align 8
  tail call void %1(ptr noundef nonnull align 8 dereferenceable(8) %0) #34
  br label %_ZNSt10unique_ptrIN7rocksdb8ReplayerESt14default_deleteIS1_EE5resetEPS1_.exit

_ZNSt10unique_ptrIN7rocksdb8ReplayerESt14default_deleteIS1_EE5resetEPS1_.exit: ; preds = %invoke.cont, %_ZNKSt14default_deleteIN7rocksdb8ReplayerEEclEPS1_.exit.i.i
  %state_.i.i = getelementptr inbounds i8, ptr %agg.result, i64 8
  store ptr null, ptr %state_.i.i, align 8, !alias.scope !523
  tail call void @llvm.memset.p0.i64(ptr noundef nonnull align 8 dereferenceable(6) %agg.result, i8 0, i64 6, i1 false), !alias.scope !523
  ret void

lpad:                                             ; preds = %entry
  %2 = landingpad { ptr, i32 }
          cleanup
  tail call void @_ZdlPv(ptr noundef nonnull %call) #33
  resume { ptr, i32 } %2
}